target datalayout = "e-m:e-p270:32:32-p271:32:32-p272:64:64-i64:64-i128:128-f80:128-n8:16:32:64-S128"
target triple = "x86_64-pc-linux-gnu"

%struct.quic_conn_id_st = type { i8, [20 x i8] }
%union.bio_addr_st = type { %struct.sockaddr_in6, [84 x i8] }
%struct.sockaddr_in6 = type { i16, i16, i32, %struct.in6_addr, i32 }
%struct.in6_addr = type { %union.anon }
%union.anon = type { [4 x i32] }
%struct.OSSL_TIME = type { i64 }
%struct.quic_channel_st = type { ptr, %struct.anon, %struct.anon.0, ptr, ptr, ptr, ptr, ptr, ptr, ptr, i64, %union.bio_addr_st, ptr, ptr, ptr, %struct.quic_txfc_st, %struct.quic_rxfc_st, [3 x %struct.quic_rxfc_st], %struct.quic_rxfc_st, %struct.quic_rxfc_st, %struct.quic_stream_map_st, %struct.ossl_statm_st, ptr, ptr, ptr, ptr, ptr, ptr, ptr, ptr, [3 x ptr], [3 x ptr], %struct.quic_conn_id_st, %struct.quic_conn_id_st, %struct.quic_conn_id_st, %struct.quic_conn_id_st, %struct.quic_conn_id_st, %struct.quic_conn_id_st, i64, i64, i64, i64, i64, i64, i64, i64, i64, i64, i8, i16, ptr, i64, i64, i64, i64, i64, i64, i64, i64, i64, i64, i64, i64, i64, %struct.quic_terminate_cause_st, %struct.OSSL_TIME, %struct.OSSL_TIME, %struct.OSSL_TIME, %struct.OSSL_TIME, %struct.OSSL_TIME, i64, i64, i64, ptr, ptr, i64, ptr }
%struct.anon = type { ptr, ptr }
%struct.anon.0 = type { ptr, ptr }
%struct.quic_txfc_st = type { ptr, i64, i64, i8 }
%struct.quic_rxfc_st = type { i64, i64, i64, i64, i64, i64, i64, %struct.OSSL_TIME, ptr, ptr, ptr, i8, i8, i8, i8 }
%struct.quic_stream_map_st = type { ptr, %struct.quic_stream_list_node_st, %struct.quic_stream_list_node_st, %struct.quic_stream_list_node_st, i64, i64, i64, i64, i64, ptr, ptr, ptr, ptr, ptr, i32 }
%struct.quic_stream_list_node_st = type { ptr, ptr }
%struct.ossl_statm_st = type { %struct.OSSL_TIME, %struct.OSSL_TIME, %struct.OSSL_TIME, %struct.OSSL_TIME, i8 }
%struct.quic_terminate_cause_st = type { i64, i64, ptr, i64, i8 }

@.str = private unnamed_addr constant [35 x i8] c"../openssl/ssl/quic/quic_channel.c\00", align 1
@.str.12 = private unnamed_addr constant [29 x i8] c"RX key update again too soon\00", align 1
@__func__.rxku_detected = private unnamed_addr constant [14 x i8] c"rxku_detected\00", align 1
@.str.111 = private unnamed_addr constant [11 x i8] c"key update\00", align 1
@__func__.ch_trigger_txku = private unnamed_addr constant [16 x i8] c"ch_trigger_txku\00", align 1

; Function Attrs: inlinehint nounwind uwtable
define internal i64 @ossl_ticks2time(i64 noundef %0) #4 {
  %2 = alloca %struct.OSSL_TIME, align 8
  %3 = alloca i64, align 8
  store i64 %0, ptr %3, align 8, !tbaa !47
  %4 = load i64, ptr %3, align 8, !tbaa !47
  %5 = getelementptr inbounds nuw %struct.OSSL_TIME, ptr %2, i32 0, i32 0
  store i64 %4, ptr %5, align 8, !tbaa !190
  %6 = getelementptr inbounds nuw %struct.OSSL_TIME, ptr %2, i32 0, i32 0
  %7 = load i64, ptr %6, align 8
  ret i64 %7
}

; Function Attrs: inlinehint nounwind uwtable
define internal i32 @ossl_quic_pn_valid(i64 noundef %0) #4 {
  %2 = alloca i64, align 8
  store i64 %0, ptr %2, align 8, !tbaa !47
  %3 = load i64, ptr %2, align 8, !tbaa !47
  %4 = icmp ult i64 %3, 4611686018427387904
  %5 = zext i1 %4 to i32
  ret i32 %5
}

; Function Attrs: inlinehint nounwind uwtable
define internal i64 @ossl_time_infinite() #4 {
  %1 = alloca %struct.OSSL_TIME, align 8
  %2 = call i64 @ossl_ticks2time(i64 noundef -1)
  %3 = getelementptr inbounds nuw %struct.OSSL_TIME, ptr %1, i32 0, i32 0
  store i64 %2, ptr %3, align 8
  %4 = getelementptr inbounds nuw %struct.OSSL_TIME, ptr %1, i32 0, i32 0
  %5 = load i64, ptr %4, align 8
  ret i64 %5
}

; Function Attrs: inlinehint nounwind uwtable
define internal i64 @safe_add_time(i64 noundef %0, i64 noundef %1, ptr noundef %2) #4 {
  %4 = alloca i64, align 8
  %5 = alloca i64, align 8
  %6 = alloca i64, align 8
  %7 = alloca ptr, align 8
  %8 = alloca i64, align 8
  %9 = alloca i32, align 4
  store i64 %0, ptr %5, align 8, !tbaa !47
  store i64 %1, ptr %6, align 8, !tbaa !47
  store ptr %2, ptr %7, align 8, !tbaa !191
  call void @llvm.lifetime.start.p0(i64 8, ptr %8) #9
  %10 = load i64, ptr %5, align 8, !tbaa !47
  %11 = load i64, ptr %6, align 8, !tbaa !47
  %12 = call { i64, i1 } @llvm.uadd.with.overflow.i64(i64 %10, i64 %11)
  %13 = extractvalue { i64, i1 } %12, 1
  %14 = extractvalue { i64, i1 } %12, 0
  store i64 %14, ptr %8, align 8
  br i1 %13, label %17, label %15

15:                                               ; preds = %3
  %16 = load i64, ptr %8, align 8, !tbaa !47
  store i64 %16, ptr %4, align 8
  store i32 1, ptr %9, align 4
  br label %24

17:                                               ; preds = %3
  %18 = load ptr, ptr %7, align 8, !tbaa !191
  %19 = load i32, ptr %18, align 4, !tbaa !80
  %20 = or i32 %19, 1
  store i32 %20, ptr %18, align 4, !tbaa !80
  %21 = load i64, ptr %5, align 8, !tbaa !47
  %22 = load i64, ptr %6, align 8, !tbaa !47
  %23 = add i64 %21, %22
  store i64 %23, ptr %4, align 8
  store i32 1, ptr %9, align 4
  br label %24

24:                                               ; preds = %17, %15
  call void @llvm.lifetime.end.p0(i64 8, ptr %8) #9
  %25 = load i64, ptr %4, align 8
  ret i64 %25
}

; Function Attrs: nounwind uwtable
define internal void @ch_trigger_txku(ptr noundef %0) #0 {
  %2 = alloca ptr, align 8
  %3 = alloca i64, align 8
  %4 = alloca i32, align 4
  store ptr %0, ptr %2, align 8, !tbaa !3
  call void @llvm.lifetime.start.p0(i64 8, ptr %3) #9
  %5 = load ptr, ptr %2, align 8, !tbaa !3
  %6 = getelementptr inbounds nuw %struct.quic_channel_st, ptr %5, i32 0, i32 12
  %7 = load ptr, ptr %6, align 8, !tbaa !112
  %8 = call i64 @ossl_quic_tx_packetiser_get_next_pn(ptr noundef %7, i32 noundef 2)
  store i64 %8, ptr %3, align 8, !tbaa !47
  %9 = load i64, ptr %3, align 8, !tbaa !47
  %10 = call i32 @ossl_quic_pn_valid(i64 noundef %9)
  %11 = icmp ne i32 %10, 0
  br i1 %11, label %12, label %18

12:                                               ; preds = %1
  %13 = load ptr, ptr %2, align 8, !tbaa !3
  %14 = getelementptr inbounds nuw %struct.quic_channel_st, ptr %13, i32 0, i32 25
  %15 = load ptr, ptr %14, align 8, !tbaa !74
  %16 = call i32 @ossl_qtx_trigger_key_update(ptr noundef %15)
  %17 = icmp ne i32 %16, 0
  br i1 %17, label %20, label %18

18:                                               ; preds = %12, %1
  %19 = load ptr, ptr %2, align 8, !tbaa !3
  call void @ossl_quic_channel_raise_protocol_error_loc(ptr noundef %19, i64 noundef 1, i64 noundef 0, ptr noundef @.str.111, ptr noundef null, ptr noundef @.str, i32 noundef 705, ptr noundef @__func__.ch_trigger_txku)
  store i32 1, ptr %4, align 4
  br label %43

20:                                               ; preds = %12
  %21 = load ptr, ptr %2, align 8, !tbaa !3
  %22 = getelementptr inbounds nuw %struct.quic_channel_st, ptr %21, i32 0, i32 72
  %23 = load i64, ptr %22, align 8
  %24 = and i64 %23, -4294967297
  %25 = or i64 %24, 4294967296
  store i64 %25, ptr %22, align 8
  %26 = load i64, ptr %3, align 8, !tbaa !47
  %27 = load ptr, ptr %2, align 8, !tbaa !3
  %28 = getelementptr inbounds nuw %struct.quic_channel_st, ptr %27, i32 0, i32 70
  store i64 %26, ptr %28, align 8, !tbaa !267
  %29 = load ptr, ptr %2, align 8, !tbaa !3
  %30 = getelementptr inbounds nuw %struct.quic_channel_st, ptr %29, i32 0, i32 72
  %31 = load i64, ptr %30, align 8
  %32 = lshr i64 %31, 31
  %33 = and i64 %32, 1
  %34 = trunc i64 %33 to i32
  %35 = load ptr, ptr %2, align 8, !tbaa !3
  %36 = getelementptr inbounds nuw %struct.quic_channel_st, ptr %35, i32 0, i32 72
  %37 = zext i32 %34 to i64
  %38 = load i64, ptr %36, align 8
  %39 = and i64 %37, 1
  %40 = shl i64 %39, 36
  %41 = and i64 %38, -68719476737
  %42 = or i64 %41, %40
  store i64 %42, ptr %36, align 8
  store i32 0, ptr %4, align 4
  br label %43

43:                                               ; preds = %20, %18
  call void @llvm.lifetime.end.p0(i64 8, ptr %3) #9
  %44 = load i32, ptr %4, align 4
  switch i32 %44, label %46 [
    i32 0, label %45
    i32 1, label %45
  ]

45:                                               ; preds = %43, %43
  ret void

46:                                               ; preds = %43
  unreachable
}

; Function Attrs: inlinehint nounwind uwtable
define internal i64 @ossl_time_add(i64 %0, i64 %1) #4 {
  %3 = alloca %struct.OSSL_TIME, align 8
  %4 = alloca %struct.OSSL_TIME, align 8
  %5 = alloca %struct.OSSL_TIME, align 8
  %6 = alloca %struct.OSSL_TIME, align 8
  %7 = alloca i32, align 4
  %8 = getelementptr inbounds nuw %struct.OSSL_TIME, ptr %4, i32 0, i32 0
  store i64 %0, ptr %8, align 8
  %9 = getelementptr inbounds nuw %struct.OSSL_TIME, ptr %5, i32 0, i32 0
  store i64 %1, ptr %9, align 8
  call void @llvm.lifetime.start.p0(i64 8, ptr %6) #9
  call void @llvm.lifetime.start.p0(i64 4, ptr %7) #9
  store i32 0, ptr %7, align 4, !tbaa !80
  %10 = getelementptr inbounds nuw %struct.OSSL_TIME, ptr %4, i32 0, i32 0
  %11 = load i64, ptr %10, align 8, !tbaa !190
  %12 = getelementptr inbounds nuw %struct.OSSL_TIME, ptr %5, i32 0, i32 0
  %13 = load i64, ptr %12, align 8, !tbaa !190
  %14 = call i64 @safe_add_time(i64 noundef %11, i64 noundef %13, ptr noundef %7)
  %15 = getelementptr inbounds nuw %struct.OSSL_TIME, ptr %6, i32 0, i32 0
  store i64 %14, ptr %15, align 8, !tbaa !190
  %16 = load i32, ptr %7, align 4, !tbaa !80
  %17 = icmp ne i32 %16, 0
  br i1 %17, label %18, label %21

18:                                               ; preds = %2
  %19 = call i64 @ossl_time_infinite()
  %20 = getelementptr inbounds nuw %struct.OSSL_TIME, ptr %3, i32 0, i32 0
  store i64 %19, ptr %20, align 8
  br label %22

21:                                               ; preds = %2
  call void @llvm.memcpy.p0.p0.i64(ptr align 8 %3, ptr align 8 %6, i64 8, i1 false), !tbaa.struct !73
  br label %22

22:                                               ; preds = %21, %18
  call void @llvm.lifetime.end.p0(i64 4, ptr %7) #9
  call void @llvm.lifetime.end.p0(i64 8, ptr %6) #9
  %23 = getelementptr inbounds nuw %struct.OSSL_TIME, ptr %3, i32 0, i32 0
  %24 = load i64, ptr %23, align 8
  ret i64 %24
}

; Function Attrs: nounwind uwtable
define internal i64 @get_time(ptr noundef %0) #0 {
  %2 = alloca %struct.OSSL_TIME, align 8
  %3 = alloca ptr, align 8
  %4 = alloca ptr, align 8
  store ptr %0, ptr %3, align 8, !tbaa !172
  call void @llvm.lifetime.start.p0(i64 8, ptr %4) #9
  %5 = load ptr, ptr %3, align 8, !tbaa !172
  store ptr %5, ptr %4, align 8, !tbaa !3
  %6 = load ptr, ptr %4, align 8, !tbaa !3
  %7 = getelementptr inbounds nuw %struct.quic_channel_st, ptr %6, i32 0, i32 0
  %8 = load ptr, ptr %7, align 8, !tbaa !8
  %9 = call i64 @ossl_quic_port_get_time(ptr noundef %8)
  %10 = getelementptr inbounds nuw %struct.OSSL_TIME, ptr %2, i32 0, i32 0
  store i64 %9, ptr %10, align 8
  call void @llvm.lifetime.end.p0(i64 8, ptr %4) #9
  %11 = getelementptr inbounds nuw %struct.OSSL_TIME, ptr %2, i32 0, i32 0
  %12 = load i64, ptr %11, align 8
  ret i64 %12
}

; Function Attrs: nounwind uwtable
define internal i32 @rxku_allowed(ptr noundef %0) #0 {
  %2 = alloca ptr, align 8
  store ptr %0, ptr %2, align 8, !tbaa !3
  %3 = load ptr, ptr %2, align 8, !tbaa !3
  %4 = getelementptr inbounds nuw %struct.quic_channel_st, ptr %3, i32 0, i32 72
  %5 = load i64, ptr %4, align 8
  %6 = lshr i64 %5, 10
  %7 = and i64 %6, 1
  %8 = trunc i64 %7 to i32
  %9 = icmp ne i32 %8, 0
  br i1 %9, label %10, label %19

10:                                               ; preds = %1
  %11 = load ptr, ptr %2, align 8, !tbaa !3
  %12 = getelementptr inbounds nuw %struct.quic_channel_st, ptr %11, i32 0, i32 72
  %13 = load i64, ptr %12, align 8
  %14 = lshr i64 %13, 34
  %15 = and i64 %14, 1
  %16 = trunc i64 %15 to i32
  %17 = icmp ne i32 %16, 0
  %18 = xor i1 %17, true
  br label %19

19:                                               ; preds = %10, %1
  %20 = phi i1 [ false, %1 ], [ %18, %10 ]
  %21 = zext i1 %20 to i32
  ret i32 %21
}

; Function Attrs: nounwind uwtable
define internal void @rxku_detected(i64 noundef %0, ptr noundef %1) #0 {
  %3 = alloca i64, align 8
  %4 = alloca ptr, align 8
  %5 = alloca ptr, align 8
  %6 = alloca i32, align 4
  %7 = alloca %struct.OSSL_TIME, align 8
  %8 = alloca i32, align 4
  %9 = alloca %struct.OSSL_TIME, align 8
  %10 = alloca %struct.OSSL_TIME, align 8
  %11 = alloca %struct.OSSL_TIME, align 8
  store i64 %0, ptr %3, align 8, !tbaa !47
  store ptr %1, ptr %4, align 8, !tbaa !172
  call void @llvm.lifetime.start.p0(i64 8, ptr %5) #9
  %12 = load ptr, ptr %4, align 8, !tbaa !172
  store ptr %12, ptr %5, align 8, !tbaa !3
  call void @llvm.lifetime.start.p0(i64 4, ptr %6) #9
  call void @llvm.lifetime.start.p0(i64 8, ptr %7) #9
  %13 = load ptr, ptr %5, align 8, !tbaa !3
  %14 = call i32 @rxku_allowed(ptr noundef %13)
  %15 = icmp ne i32 %14, 0
  br i1 %15, label %17, label %16

16:                                               ; preds = %2
  store i32 1, ptr %6, align 4, !tbaa !80
  br label %28

17:                                               ; preds = %2
  %18 = load ptr, ptr %5, align 8, !tbaa !3
  %19 = getelementptr inbounds nuw %struct.quic_channel_st, ptr %18, i32 0, i32 72
  %20 = load i64, ptr %19, align 8
  %21 = lshr i64 %20, 31
  %22 = and i64 %21, 1
  %23 = trunc i64 %22 to i32
  %24 = icmp ne i32 %23, 0
  br i1 %24, label %25, label %26

25:                                               ; preds = %17
  store i32 0, ptr %6, align 4, !tbaa !80
  br label %27

26:                                               ; preds = %17
  store i32 2, ptr %6, align 4, !tbaa !80
  br label %27

27:                                               ; preds = %26, %25
  br label %28

28:                                               ; preds = %27, %16
  %29 = load i32, ptr %6, align 4, !tbaa !80
  %30 = icmp eq i32 %29, 1
  br i1 %30, label %31, label %33

31:                                               ; preds = %28
  %32 = load ptr, ptr %5, align 8, !tbaa !3
  call void @ossl_quic_channel_raise_protocol_error_loc(ptr noundef %32, i64 noundef 14, i64 noundef 0, ptr noundef @.str.12, ptr noundef null, ptr noundef @.str, i32 noundef 853, ptr noundef @__func__.rxku_detected)
  store i32 1, ptr %8, align 4
  br label %81

33:                                               ; preds = %28
  call void @llvm.lifetime.start.p0(i64 8, ptr %9) #9
  %34 = load ptr, ptr %5, align 8, !tbaa !3
  %35 = getelementptr inbounds nuw %struct.quic_channel_st, ptr %34, i32 0, i32 24
  %36 = load ptr, ptr %35, align 8, !tbaa !87
  %37 = call i64 @ossl_ackm_get_pto_duration(ptr noundef %36)
  %38 = getelementptr inbounds nuw %struct.OSSL_TIME, ptr %9, i32 0, i32 0
  store i64 %37, ptr %38, align 8
  call void @llvm.memcpy.p0.p0.i64(ptr align 8 %7, ptr align 8 %9, i64 8, i1 false), !tbaa.struct !73
  call void @llvm.lifetime.end.p0(i64 8, ptr %9) #9
  %39 = load ptr, ptr %5, align 8, !tbaa !3
  %40 = getelementptr inbounds nuw %struct.quic_channel_st, ptr %39, i32 0, i32 72
  %41 = load i64, ptr %40, align 8
  %42 = and i64 %41, -2147483649
  %43 = or i64 %42, 0
  store i64 %43, ptr %40, align 8
  %44 = load ptr, ptr %5, align 8, !tbaa !3
  %45 = getelementptr inbounds nuw %struct.quic_channel_st, ptr %44, i32 0, i32 72
  %46 = load i64, ptr %45, align 8
  %47 = and i64 %46, -8589934593
  %48 = or i64 %47, 8589934592
  store i64 %48, ptr %45, align 8
  %49 = load ptr, ptr %5, align 8, !tbaa !3
  %50 = getelementptr inbounds nuw %struct.quic_channel_st, ptr %49, i32 0, i32 72
  %51 = load i64, ptr %50, align 8
  %52 = and i64 %51, -17179869185
  %53 = or i64 %52, 17179869184
  store i64 %53, ptr %50, align 8
  %54 = load i64, ptr %3, align 8, !tbaa !47
  %55 = load ptr, ptr %5, align 8, !tbaa !3
  %56 = getelementptr inbounds nuw %struct.quic_channel_st, ptr %55, i32 0, i32 71
  store i64 %54, ptr %56, align 8, !tbaa !273
  %57 = load ptr, ptr %5, align 8, !tbaa !3
  %58 = getelementptr inbounds nuw %struct.quic_channel_st, ptr %57, i32 0, i32 69
  call void @llvm.lifetime.start.p0(i64 8, ptr %10) #9
  %59 = load ptr, ptr %5, align 8, !tbaa !3
  %60 = call i64 @get_time(ptr noundef %59)
  %61 = getelementptr inbounds nuw %struct.OSSL_TIME, ptr %11, i32 0, i32 0
  store i64 %60, ptr %61, align 8
  %62 = getelementptr inbounds nuw %struct.OSSL_TIME, ptr %11, i32 0, i32 0
  %63 = load i64, ptr %62, align 8
  %64 = getelementptr inbounds nuw %struct.OSSL_TIME, ptr %7, i32 0, i32 0
  %65 = load i64, ptr %64, align 8
  %66 = call i64 @ossl_time_add(i64 %63, i64 %65)
  %67 = getelementptr inbounds nuw %struct.OSSL_TIME, ptr %10, i32 0, i32 0
  store i64 %66, ptr %67, align 8
  call void @llvm.memcpy.p0.p0.i64(ptr align 8 %58, ptr align 8 %10, i64 8, i1 false), !tbaa.struct !73
  call void @llvm.lifetime.end.p0(i64 8, ptr %10) #9
  %68 = load ptr, ptr %5, align 8, !tbaa !3
  %69 = getelementptr inbounds nuw %struct.quic_channel_st, ptr %68, i32 0, i32 72
  %70 = load i64, ptr %69, align 8
  %71 = and i64 %70, -68719476737
  %72 = or i64 %71, 0
  store i64 %72, ptr %69, align 8
  %73 = load i32, ptr %6, align 4, !tbaa !80
  %74 = icmp eq i32 %73, 2
  br i1 %74, label %75, label %77

75:                                               ; preds = %33
  %76 = load ptr, ptr %5, align 8, !tbaa !3
  call void @ch_trigger_txku(ptr noundef %76)
  br label %77

77:                                               ; preds = %75, %33
  %78 = load ptr, ptr %5, align 8, !tbaa !3
  %79 = getelementptr inbounds nuw %struct.quic_channel_st, ptr %78, i32 0, i32 12
  %80 = load ptr, ptr %79, align 8, !tbaa !112
  call void @ossl_quic_tx_packetiser_schedule_ack(ptr noundef %80, i32 noundef 2)
  store i32 0, ptr %8, align 4
  br label %81

81:                                               ; preds = %77, %31
  call void @llvm.lifetime.end.p0(i64 8, ptr %7) #9
  call void @llvm.lifetime.end.p0(i64 4, ptr %6) #9
  call void @llvm.lifetime.end.p0(i64 8, ptr %5) #9
  %82 = load i32, ptr %8, align 4
  switch i32 %82, label %84 [
    i32 0, label %83
    i32 1, label %83
  ]

83:                                               ; preds = %81, %81
  ret void

84:                                               ; preds = %81
  unreachable
}